; ModuleID = 'source-C-CXX/35/403.c'
source_filename = "source-C-CXX/35/403.c"
target datalayout = "e-m:e-p270:32:32-p271:32:32-p272:64:64-i64:64-f80:128-n8:16:32:64-S128"
target triple = "x86_64-pc-linux-gnu"

@.str = private unnamed_addr constant [3 x i8] c"%s\00", align 1
@.str.1 = private unnamed_addr constant [3 x i8] c"NO\00", align 1
@.str.2 = private unnamed_addr constant [4 x i8] c"YES\00", align 1

; Function Attrs: nofree nounwind sspstrong uwtable
define dso_local void @main() local_unnamed_addr #0 {
  %1 = alloca [1000 x i8], align 16
  %2 = alloca [1000 x i8], align 16
  %3 = getelementptr inbounds [1000 x i8], [1000 x i8]* %1, i64 0, i64 0
  call void @llvm.lifetime.start.p0i8(i64 1000, i8* nonnull %3) #4
  %4 = getelementptr inbounds [1000 x i8], [1000 x i8]* %2, i64 0, i64 0
  call void @llvm.lifetime.start.p0i8(i64 1000, i8* nonnull %4) #4
  %5 = call i32 (i8*, ...) @__isoc99_scanf(i8* getelementptr inbounds ([3 x i8], [3 x i8]* @.str, i64 0, i64 0), i8* nonnull %3)
  %6 = call i32 (i8*, ...) @__isoc99_scanf(i8* getelementptr inbounds ([3 x i8], [3 x i8]* @.str, i64 0, i64 0), i8* nonnull %4)
  %7 = call i64 @strlen(i8* noundef nonnull %3) #5
  %8 = call i64 @strlen(i8* noundef nonnull %4) #5
  %9 = icmp eq i64 %7, %8
  br i1 %9, label %10, label %49

10:                                               ; preds = %0
  %11 = trunc i64 %7 to i32
  %12 = icmp sgt i32 %11, 1
  br i1 %12, label %13, label %45

13:                                               ; preds = %10, %42
  %14 = phi i32 [ %16, %42 ], [ %11, %10 ]
  %15 = phi i32 [ %43, %42 ], [ 1, %10 ]
  %16 = add i32 %14, -1
  %17 = xor i32 %15, -1
  %18 = add i32 %17, %11
  %19 = icmp slt i32 %18, 0
  br i1 %19, label %42, label %20

20:                                               ; preds = %13
  %21 = zext i32 %16 to i64
  %22 = load i8, i8* %3, align 16, !tbaa !5
  br label %23

23:                                               ; preds = %20, %40
  %24 = phi i8 [ %22, %20 ], [ %33, %40 ]
  %25 = phi i64 [ 0, %20 ], [ %26, %40 ]
  %26 = add nuw nsw i64 %25, 1
  %27 = getelementptr inbounds [1000 x i8], [1000 x i8]* %1, i64 0, i64 %26
  %28 = load i8, i8* %27, align 1, !tbaa !5
  %29 = icmp slt i8 %24, %28
  br i1 %29, label %30, label %32

30:                                               ; preds = %23
  %31 = getelementptr inbounds [1000 x i8], [1000 x i8]* %1, i64 0, i64 %25
  store i8 %28, i8* %31, align 1, !tbaa !5
  store i8 %24, i8* %27, align 1, !tbaa !5
  br label %32

32:                                               ; preds = %30, %23
  %33 = phi i8 [ %24, %30 ], [ %28, %23 ]
  %34 = getelementptr inbounds [1000 x i8], [1000 x i8]* %2, i64 0, i64 %25
  %35 = load i8, i8* %34, align 1, !tbaa !5
  %36 = getelementptr inbounds [1000 x i8], [1000 x i8]* %2, i64 0, i64 %26
  %37 = load i8, i8* %36, align 1, !tbaa !5
  %38 = icmp slt i8 %35, %37
  br i1 %38, label %39, label %40

39:                                               ; preds = %32
  store i8 %37, i8* %34, align 1, !tbaa !5
  store i8 %35, i8* %36, align 1, !tbaa !5
  br label %40

40:                                               ; preds = %32, %39
  %41 = icmp eq i64 %26, %21
  br i1 %41, label %42, label %23, !llvm.loop !8

42:                                               ; preds = %40, %13
  %43 = add nuw nsw i32 %15, 1
  %44 = icmp eq i32 %43, %11
  br i1 %44, label %45, label %13, !llvm.loop !10

45:                                               ; preds = %42, %10
  %46 = call i32 @strcmp(i8* noundef nonnull %3, i8* noundef nonnull %4) #5
  %47 = icmp eq i32 %46, 0
  %48 = select i1 %47, i8* getelementptr inbounds ([4 x i8], [4 x i8]* @.str.2, i64 0, i64 0), i8* getelementptr inbounds ([3 x i8], [3 x i8]* @.str.1, i64 0, i64 0)
  br label %49

49:                                               ; preds = %45, %0
  %50 = phi i8* [ getelementptr inbounds ([3 x i8], [3 x i8]* @.str.1, i64 0, i64 0), %0 ], [ %48, %45 ]
  %51 = call i32 (i8*, ...) @printf(i8* nonnull dereferenceable(1) %50)
  call void @llvm.lifetime.end.p0i8(i64 1000, i8* nonnull %4) #4
  call void @llvm.lifetime.end.p0i8(i64 1000, i8* nonnull %3) #4
  ret void
}

; Function Attrs: argmemonly mustprogress nofree nosync nounwind willreturn
declare void @llvm.lifetime.start.p0i8(i64 immarg, i8* nocapture) #1

; Function Attrs: nofree nounwind
declare noundef i32 @__isoc99_scanf(i8* nocapture noundef readonly, ...) local_unnamed_addr #2

; Function Attrs: argmemonly mustprogress nofree nounwind readonly willreturn
declare i64 @strlen(i8* nocapture) local_unnamed_addr #3

; Function Attrs: nofree nounwind
declare noundef i32 @printf(i8* nocapture noundef readonly, ...) local_unnamed_addr #2

; Function Attrs: argmemonly mustprogress nofree nounwind readonly willreturn
declare i32 @strcmp(i8* nocapture, i8* nocapture) local_unnamed_addr #3

; Function Attrs: argmemonly mustprogress nofree nosync nounwind willreturn
declare void @llvm.lifetime.end.p0i8(i64 immarg, i8* nocapture) #1


!llvm.module.flags = !{!0, !1, !2, !3}
!llvm.ident = !{!4}

!0 = !{i32 1, !"wchar_size", i32 4}
!1 = !{i32 7, !"PIC Level", i32 2}
!2 = !{i32 7, !"PIE Level", i32 2}
!3 = !{i32 7, !"uwtable", i32 1}
!4 = !{!"clang version 13.0.0"}
!5 = !{!6, !6, i64 0}
!6 = !{!"omnipotent char", !7, i64 0}
!7 = !{!"Simple C/C++ TBAA"}
!8 = distinct !{!8, !9}
!9 = !{!"llvm.loop.mustprogress"}
!10 = distinct !{!10, !9}
